	.text
	.file	"test_simple.c"
	.globl	add                             // -- Begin function add
	.p2align	2
	.type	add,@function
add:                                    // @add
	.cfi_startproc
// %bb.0:
	sub	sp, sp, #16
	.cfi_def_cfa_offset 16
	str	w0, [sp, #12]
	str	w1, [sp, #8]
	ldr	w8, [sp, #12]
	ldr	w9, [sp, #8]
	add	w0, w8, w9
	add	sp, sp, #16
	.cfi_def_cfa_offset 0
	ret
.Lfunc_end0:
	.size	add, .Lfunc_end0-add
	.cfi_endproc
                                        // -- End function
	.globl	main                            // -- Begin function main
	.p2align	2
	.type	main,@function
main:                                   // @main
	.cfi_startproc
// %bb.0:
	sub	sp, sp, #32
	.cfi_def_cfa_offset 32
	stp	x29, x30, [sp, #16]             // 16-byte Folded Spill
	add	x29, sp, #16
	.cfi_def_cfa w29, 16
	.cfi_offset w30, -8
	.cfi_offset w29, -16
	stur	wzr, [x29, #-4]
	mov	w8, #42                         // =0x2a
	str	w8, [sp, #8]
	mov	w8, #10                         // =0xa
	str	w8, [sp, #4]
	ldr	w0, [sp, #8]
	ldr	w1, [sp, #4]
	bl	add
	str	w0, [sp]
	ldr	w0, [sp]
	.cfi_def_cfa wsp, 32
	ldp	x29, x30, [sp, #16]             // 16-byte Folded Reload
	add	sp, sp, #32
	.cfi_def_cfa_offset 0
	.cfi_restore w30
	.cfi_restore w29
	ret
.Lfunc_end1:
	.size	main, .Lfunc_end1-main
	.cfi_endproc
                                        // -- End function
	.ident	"BiSheng Enterprise 4.2.0.2.B002 clang version 17.0.6 (2261d9fde4e0)"
	.section	".note.GNU-stack","",@progbits
	.addrsig
	.addrsig_sym add
